target datalayout = "e-m:e-p270:32:32-p271:32:32-p272:64:64-i64:64-i128:128-f80:128-n8:16:32:64-S128"
target triple = "x86_64-unknown-linux-gnu"

%"struct.std::pair" = type { ptr, ptr }

; Function Attrs: mustprogress nounwind uwtable
define linkonce_odr hidden void @_ZNSt4pairIPN6hermes7LiteralEPNS0_10BasicBlockEEC2IS2_S4_TnNSt9enable_ifIXaaclsr5_PCCPE22_MoveConstructiblePairIT_T0_EEclsr5_PCCPE30_ImplicitlyMoveConvertiblePairIS8_S9_EEEbE4typeELb1EEEOS8_OS9_(ptr noundef nonnull align 8 dereferenceable(16) %this, ptr noundef nonnull align 8 dereferenceable(8) %__x, ptr noundef nonnull align 8 dereferenceable(8) %__y) unnamed_addr #0 comdat align 2 {
entry:
  %this.addr = alloca ptr, align 8
  %__x.addr = alloca ptr, align 8
  %__y.addr = alloca ptr, align 8
  store ptr %this, ptr %this.addr, align 8
  store ptr %__x, ptr %__x.addr, align 8
  store ptr %__y, ptr %__y.addr, align 8
  %this1 = load ptr, ptr %this.addr, align 8
  %first = getelementptr inbounds %"struct.std::pair", ptr %this1, i32 0, i32 0
  %0 = load ptr, ptr %__x.addr, align 8
  %1 = load ptr, ptr %0, align 8
  store ptr %1, ptr %first, align 8
  %second = getelementptr inbounds %"struct.std::pair", ptr %this1, i32 0, i32 1
  %2 = load ptr, ptr %__y.addr, align 8
  %3 = load ptr, ptr %2, align 8
  store ptr %3, ptr %second, align 8
  ret void
}

; Function Attrs: mustprogress nounwind uwtable
define linkonce_odr hidden noundef ptr @_ZN4llvh16cast_convert_valIN6hermes10BasicBlockEPNS1_5ValueES4_E4doitERKS4_(ptr noundef nonnull align 8 dereferenceable(8) %Val) #0 comdat align 2 {
entry:
  %Val.addr = alloca ptr, align 8
  %Res2 = alloca ptr, align 8
  store ptr %Val, ptr %Val.addr, align 8
  %0 = load ptr, ptr %Val.addr, align 8
  %1 = load ptr, ptr %0, align 8
  %2 = icmp eq ptr %1, null
  br i1 %2, label %cast.null, label %cast.notnull

cast.notnull:                                     ; preds = %entry
  %sub.ptr = getelementptr inbounds i8, ptr %1, i64 -16
  br label %cast.end

cast.null:                                        ; preds = %entry
  br label %cast.end

cast.end:                                         ; preds = %cast.null, %cast.notnull
  %3 = phi ptr [ %sub.ptr, %cast.notnull ], [ null, %cast.null ]
  store ptr %3, ptr %Res2, align 8
  %4 = load ptr, ptr %Res2, align 8
  ret ptr %4
}

; Function Attrs: mustprogress nounwind uwtable
define linkonce_odr hidden noundef ptr @_ZN4llvh16cast_convert_valIN6hermes7LiteralEPNS1_5ValueES4_E4doitERKS4_(ptr noundef nonnull align 8 dereferenceable(8) %Val) #0 comdat align 2 {
entry:
  %Val.addr = alloca ptr, align 8
  %Res2 = alloca ptr, align 8
  store ptr %Val, ptr %Val.addr, align 8
  %0 = load ptr, ptr %Val.addr, align 8
  %1 = load ptr, ptr %0, align 8
  store ptr %1, ptr %Res2, align 8
  %2 = load ptr, ptr %Res2, align 8
  ret ptr %2
}

; Function Attrs: mustprogress nounwind uwtable
define linkonce_odr hidden { ptr, ptr } @_ZSt9make_pairIPN6hermes7LiteralEPNS0_10BasicBlockEESt4pairINSt25__strip_reference_wrapperINSt5decayIT_E4typeEE6__typeENS6_INS7_IT0_E4typeEE6__typeEEOS8_OSD_(ptr noundef nonnull align 8 dereferenceable(8) %__x, ptr noundef nonnull align 8 dereferenceable(8) %__y) #0 comdat {
entry:
  %retval = alloca %"struct.std::pair", align 8
  %__x.addr = alloca ptr, align 8
  %__y.addr = alloca ptr, align 8
  store ptr %__x, ptr %__x.addr, align 8
  store ptr %__y, ptr %__y.addr, align 8
  %0 = load ptr, ptr %__x.addr, align 8
  %1 = load ptr, ptr %__y.addr, align 8
  call void @_ZNSt4pairIPN6hermes7LiteralEPNS0_10BasicBlockEEC2IS2_S4_TnNSt9enable_ifIXaaclsr5_PCCPE22_MoveConstructiblePairIT_T0_EEclsr5_PCCPE30_ImplicitlyMoveConvertiblePairIS8_S9_EEEbE4typeELb1EEEOS8_OS9_(ptr noundef nonnull align 8 dereferenceable(16) %retval, ptr noundef nonnull align 8 dereferenceable(8) %0, ptr noundef nonnull align 8 dereferenceable(8) %1)
  %2 = load { ptr, ptr }, ptr %retval, align 8
  ret { ptr, ptr } %2
}

; Function Attrs: mustprogress nounwind uwtable
define linkonce_odr hidden noundef ptr @_ZN4llvh4castIN6hermes10BasicBlockENS1_5ValueEEENS_10cast_rettyIT_PT0_E8ret_typeES7_(ptr noundef %Val) #0 comdat {
entry:
  %Val.addr = alloca ptr, align 8
  store ptr %Val, ptr %Val.addr, align 8
  %call = call noundef ptr @_ZN4llvh16cast_convert_valIN6hermes10BasicBlockEPNS1_5ValueES4_E4doitERKS4_(ptr noundef nonnull align 8 dereferenceable(8) %Val.addr)
  ret ptr %call
}

; Function Attrs: mustprogress nounwind uwtable
define linkonce_odr hidden noundef ptr @_ZN4llvh4castIN6hermes7LiteralENS1_5ValueEEENS_10cast_rettyIT_PT0_E8ret_typeES7_(ptr noundef %Val) #0 comdat {
entry:
  %Val.addr = alloca ptr, align 8
  store ptr %Val, ptr %Val.addr, align 8
  %call = call noundef ptr @_ZN4llvh16cast_convert_valIN6hermes7LiteralEPNS1_5ValueES4_E4doitERKS4_(ptr noundef nonnull align 8 dereferenceable(8) %Val.addr)
  ret ptr %call
}

; Function Attrs: mustprogress nounwind uwtable
define hidden { ptr, ptr } @_ZNK6hermes10SwitchInst11getCasePairEj(ptr noundef nonnull align 8 dereferenceable(132) %this, i32 noundef %i) #0 align 2 {
entry:
  %retval = alloca %"struct.std::pair", align 8
  %this.addr = alloca ptr, align 8
  %i.addr = alloca i32, align 4
  %base = alloca i32, align 4
  %ref.tmp = alloca ptr, align 8
  %ref.tmp3 = alloca ptr, align 8
  store ptr %this, ptr %this.addr, align 8
  store i32 %i, ptr %i.addr, align 4
  %this1 = load ptr, ptr %this.addr, align 8
  %0 = load i32, ptr %i.addr, align 4
  %mul = mul i32 %0, 2
  %add = add i32 %mul, 2
  store i32 %add, ptr %base, align 4
  %1 = load i32, ptr %base, align 4
  %call = call noundef ptr @_ZNK6hermes11Instruction10getOperandEj(ptr noundef nonnull align 8 dereferenceable(132) %this1, i32 noundef %1)
  %call2 = call noundef ptr @_ZN4llvh4castIN6hermes7LiteralENS1_5ValueEEENS_10cast_rettyIT_PT0_E8ret_typeES7_(ptr noundef %call)
  store ptr %call2, ptr %ref.tmp, align 8
  %2 = load i32, ptr %base, align 4
  %add4 = add i32 %2, 1
  %call5 = call noundef ptr @_ZNK6hermes11Instruction10getOperandEj(ptr noundef nonnull align 8 dereferenceable(132) %this1, i32 noundef %add4)
  %call6 = call noundef ptr @_ZN4llvh4castIN6hermes10BasicBlockENS1_5ValueEEENS_10cast_rettyIT_PT0_E8ret_typeES7_(ptr noundef %call5)
  store ptr %call6, ptr %ref.tmp3, align 8
  %call7 = call { ptr, ptr } @_ZSt9make_pairIPN6hermes7LiteralEPNS0_10BasicBlockEESt4pairINSt25__strip_reference_wrapperINSt5decayIT_E4typeEE6__typeENS6_INS7_IT0_E4typeEE6__typeEEOS8_OSD_(ptr noundef nonnull align 8 dereferenceable(8) %ref.tmp, ptr noundef nonnull align 8 dereferenceable(8) %ref.tmp3)
  %3 = getelementptr inbounds { ptr, ptr }, ptr %retval, i32 0, i32 0
  %4 = extractvalue { ptr, ptr } %call7, 0
  store ptr %4, ptr %3, align 8
  %5 = getelementptr inbounds { ptr, ptr }, ptr %retval, i32 0, i32 1
  %6 = extractvalue { ptr, ptr } %call7, 1
  store ptr %6, ptr %5, align 8
  %7 = load { ptr, ptr }, ptr %retval, align 8
  ret { ptr, ptr } %7
}