; Function Attrs: mustprogress nounwind uwtable
define hidden { ptr, ptr } @_ZNK6hermes10SwitchInst11getCasePairEj(ptr noundef nonnull align 8 dereferenceable(132) %this, i32 noundef %i) local_unnamed_addr #0 align 2 {
entry:
  %mul = shl i32 %i, 1
  %add = add i32 %mul, 2
  %call = tail call noundef ptr @_ZNK6hermes11Instruction10getOperandEj(ptr noundef nonnull align 8 dereferenceable(132) %this, i32 noundef %add) #15
  %add4 = add i32 %mul, 3
  %call5 = tail call noundef ptr @_ZNK6hermes11Instruction10getOperandEj(ptr noundef nonnull align 8 dereferenceable(132) %this, i32 noundef %add4) #15
  %0 = icmp eq ptr %call5, null
  %sub.ptr.i.i = getelementptr inbounds i8, ptr %call5, i64 -16
  %1 = select i1 %0, ptr null, ptr %sub.ptr.i.i
  %.fca.0.insert.i = insertvalue { ptr, ptr } poison, ptr %call, 0
  %.fca.1.insert.i = insertvalue { ptr, ptr } %.fca.0.insert.i, ptr %1, 1
  ret { ptr, ptr } %.fca.1.insert.i
}